target datalayout = "e-m:e-p270:32:32-p271:32:32-p272:64:64-i64:64-i128:128-f80:128-n8:16:32:64-S128"
target triple = "x86_64-pc-linux-gnu"

%struct.AVFilterContext = type { ptr, ptr, ptr, ptr, ptr, i32, ptr, ptr, i32, ptr, ptr, i32, i32, ptr, ptr, ptr, ptr, i32, ptr, i32, i32 }
%struct.EvalContext = type { ptr, ptr, i32, %struct.AVChannelLayout, ptr, i32, i32, i32, i64, ptr, ptr, i32, i64, i64, [6 x double], ptr }
%struct.AVChannelLayout = type { i32, i32, %union.anon.1, ptr }
%union.anon.1 = type { i64 }
%struct.AVFilter = type { ptr, ptr, ptr, ptr, ptr, i32 }

@.str.2 = private unnamed_addr constant [6 x i8] c"aeval\00", align 1
@.str.25 = private unnamed_addr constant [36 x i8] c"Channels expressions list is empty\0A\00", align 1
@aeval_func1 = internal constant [2 x ptr] [ptr @val, ptr null], align 16
@aeval_func1_names = internal constant [2 x ptr] [ptr @.str.28, ptr null], align 16
@.str.26 = private unnamed_addr constant [2 x i8] c"|\00", align 1
@var_names = internal constant [7 x ptr] [ptr @.str.29, ptr @.str.11, ptr @.str.30, ptr @.str.31, ptr @.str.32, ptr @.str.15, ptr null], align 16
@.str.27 = private unnamed_addr constant [148 x i8] c"Mismatch between the specified number of channel expressions '%d' and the number of expected output channels '%d' for the specified channel layout\0A\00", align 1

; Function Attrs: nounwind uwtable
define internal i32 @parse_channel_expressions(ptr noundef %0, i32 noundef %1) #1 {
  %3 = alloca i32, align 4
  %4 = alloca ptr, align 8
  %5 = alloca i32, align 4
  %6 = alloca ptr, align 8
  %7 = alloca ptr, align 8
  %8 = alloca ptr, align 8
  %9 = alloca ptr, align 8
  %10 = alloca ptr, align 8
  %11 = alloca ptr, align 8
  %12 = alloca ptr, align 8
  %13 = alloca i32, align 4
  %14 = alloca i32, align 4
  %15 = alloca i32, align 4
  store ptr %0, ptr %4, align 8, !tbaa !4
  store i32 %1, ptr %5, align 4, !tbaa !24
  call void @llvm.lifetime.start.p0(i64 8, ptr %6) #9
  %16 = load ptr, ptr %4, align 8, !tbaa !4
  %17 = getelementptr inbounds nuw %struct.AVFilterContext, ptr %16, i32 0, i32 9
  %18 = load ptr, ptr %17, align 8, !tbaa !9
  store ptr %18, ptr %6, align 8, !tbaa !22
  call void @llvm.lifetime.start.p0(i64 8, ptr %7) #9
  %19 = load ptr, ptr %6, align 8, !tbaa !22
  %20 = getelementptr inbounds nuw %struct.EvalContext, ptr %19, i32 0, i32 10
  %21 = load ptr, ptr %20, align 8, !tbaa !88
  %22 = call noalias ptr @av_strdup(ptr noundef %21)
  store ptr %22, ptr %7, align 8, !tbaa !75
  call void @llvm.lifetime.start.p0(i64 8, ptr %8) #9
  call void @llvm.lifetime.start.p0(i64 8, ptr %9) #9
  store ptr null, ptr %9, align 8, !tbaa !75
  call void @llvm.lifetime.start.p0(i64 8, ptr %10) #9
  call void @llvm.lifetime.start.p0(i64 8, ptr %11) #9
  store ptr null, ptr %11, align 8, !tbaa !89
  call void @llvm.lifetime.start.p0(i64 8, ptr %12) #9
  store ptr null, ptr %12, align 8, !tbaa !90
  call void @llvm.lifetime.start.p0(i64 4, ptr %13) #9
  call void @llvm.lifetime.start.p0(i64 4, ptr %14) #9
  store i32 0, ptr %14, align 4, !tbaa !24
  %23 = load ptr, ptr %7, align 8, !tbaa !75
  %24 = icmp ne ptr %23, null
  br i1 %24, label %26, label %25

25:                                               ; preds = %2
  store i32 -12, ptr %3, align 4
  store i32 1, ptr %15, align 4
  br label %200

26:                                               ; preds = %2
  %27 = load ptr, ptr %6, align 8, !tbaa !22
  %28 = getelementptr inbounds nuw %struct.EvalContext, ptr %27, i32 0, i32 10
  %29 = load ptr, ptr %28, align 8, !tbaa !88
  %30 = icmp ne ptr %29, null
  br i1 %30, label %31, label %37

31:                                               ; preds = %26
  %32 = load ptr, ptr %6, align 8, !tbaa !22
  %33 = getelementptr inbounds nuw %struct.EvalContext, ptr %32, i32 0, i32 10
  %34 = load ptr, ptr %33, align 8, !tbaa !88
  %35 = load i8, ptr %34, align 1, !tbaa !46
  %36 = icmp ne i8 %35, 0
  br i1 %36, label %39, label %37

37:                                               ; preds = %31, %26
  %38 = load ptr, ptr %4, align 8, !tbaa !4
  call void (ptr, i32, ptr, ...) @av_log(ptr noundef %38, i32 noundef 16, ptr noundef @.str.25)
  store i32 -22, ptr %14, align 4, !tbaa !24
  br label %197

39:                                               ; preds = %31
  %40 = load ptr, ptr %4, align 8, !tbaa !4
  %41 = getelementptr inbounds nuw %struct.AVFilterContext, ptr %40, i32 0, i32 1
  %42 = load ptr, ptr %41, align 8, !tbaa !30
  %43 = getelementptr inbounds nuw %struct.AVFilter, ptr %42, i32 0, i32 0
  %44 = load ptr, ptr %43, align 8, !tbaa !31
  %45 = call i32 @strcmp(ptr noundef %44, ptr noundef @.str.2) #10
  %46 = icmp ne i32 %45, 0
  br i1 %46, label %48, label %47

47:                                               ; preds = %39
  store ptr @aeval_func1, ptr %11, align 8, !tbaa !89
  store ptr @aeval_func1_names, ptr %12, align 8, !tbaa !90
  br label %48

48:                                               ; preds = %47, %39
  store i32 0, ptr %13, align 4, !tbaa !24
  br label %49

49:                                               ; preds = %69, %48
  %50 = load i32, ptr %13, align 4, !tbaa !24
  %51 = load ptr, ptr %6, align 8, !tbaa !22
  %52 = getelementptr inbounds nuw %struct.EvalContext, ptr %51, i32 0, i32 5
  %53 = load i32, ptr %52, align 8, !tbaa !35
  %54 = icmp slt i32 %50, %53
  br i1 %54, label %55, label %72

55:                                               ; preds = %49
  %56 = load ptr, ptr %6, align 8, !tbaa !22
  %57 = getelementptr inbounds nuw %struct.EvalContext, ptr %56, i32 0, i32 9
  %58 = load ptr, ptr %57, align 8, !tbaa !38
  %59 = load i32, ptr %13, align 4, !tbaa !24
  %60 = sext i32 %59 to i64
  %61 = getelementptr inbounds ptr, ptr %58, i64 %60
  %62 = load ptr, ptr %61, align 8, !tbaa !39
  call void @av_expr_free(ptr noundef %62)
  %63 = load ptr, ptr %6, align 8, !tbaa !22
  %64 = getelementptr inbounds nuw %struct.EvalContext, ptr %63, i32 0, i32 9
  %65 = load ptr, ptr %64, align 8, !tbaa !38
  %66 = load i32, ptr %13, align 4, !tbaa !24
  %67 = sext i32 %66 to i64
  %68 = getelementptr inbounds ptr, ptr %65, i64 %67
  store ptr null, ptr %68, align 8, !tbaa !39
  br label %69

69:                                               ; preds = %55
  %70 = load i32, ptr %13, align 4, !tbaa !24
  %71 = add nsw i32 %70, 1
  store i32 %71, ptr %13, align 4, !tbaa !24
  br label %49, !llvm.loop !91

72:                                               ; preds = %49
  %73 = load ptr, ptr %6, align 8, !tbaa !22
  %74 = getelementptr inbounds nuw %struct.EvalContext, ptr %73, i32 0, i32 9
  call void @av_freep(ptr noundef %74)
  %75 = load ptr, ptr %6, align 8, !tbaa !22
  %76 = getelementptr inbounds nuw %struct.EvalContext, ptr %75, i32 0, i32 5
  store i32 0, ptr %76, align 8, !tbaa !35
  %77 = load ptr, ptr %7, align 8, !tbaa !75
  store ptr %77, ptr %10, align 8, !tbaa !75
  br label %78

78:                                               ; preds = %121, %72
  %79 = load ptr, ptr %10, align 8, !tbaa !75
  %80 = call ptr @av_strtok(ptr noundef %79, ptr noundef @.str.26, ptr noundef %10)
  store ptr %80, ptr %8, align 8, !tbaa !75
  %81 = icmp ne ptr %80, null
  br i1 %81, label %82, label %123

82:                                               ; preds = %78
  br label %83

83:                                               ; preds = %82
  %84 = load ptr, ptr %6, align 8, !tbaa !22
  %85 = getelementptr inbounds nuw %struct.EvalContext, ptr %84, i32 0, i32 9
  %86 = load ptr, ptr %6, align 8, !tbaa !22
  %87 = getelementptr inbounds nuw %struct.EvalContext, ptr %86, i32 0, i32 5
  %88 = call i32 @av_dynarray_add_nofree(ptr noundef %85, ptr noundef %87, ptr noundef null)
  store i32 %88, ptr %14, align 4, !tbaa !24
  %89 = load i32, ptr %14, align 4, !tbaa !24
  %90 = icmp slt i32 %89, 0
  br i1 %90, label %91, label %92

91:                                               ; preds = %83
  br label %197

92:                                               ; preds = %83
  %93 = load ptr, ptr %6, align 8, !tbaa !22
  %94 = getelementptr inbounds nuw %struct.EvalContext, ptr %93, i32 0, i32 9
  %95 = load ptr, ptr %94, align 8, !tbaa !38
  %96 = load ptr, ptr %6, align 8, !tbaa !22
  %97 = getelementptr inbounds nuw %struct.EvalContext, ptr %96, i32 0, i32 5
  %98 = load i32, ptr %97, align 8, !tbaa !35
  %99 = sub nsw i32 %98, 1
  %100 = sext i32 %99 to i64
  %101 = getelementptr inbounds ptr, ptr %95, i64 %100
  store ptr null, ptr %101, align 8, !tbaa !39
  %102 = load ptr, ptr %6, align 8, !tbaa !22
  %103 = getelementptr inbounds nuw %struct.EvalContext, ptr %102, i32 0, i32 9
  %104 = load ptr, ptr %103, align 8, !tbaa !38
  %105 = load ptr, ptr %6, align 8, !tbaa !22
  %106 = getelementptr inbounds nuw %struct.EvalContext, ptr %105, i32 0, i32 5
  %107 = load i32, ptr %106, align 8, !tbaa !35
  %108 = sub nsw i32 %107, 1
  %109 = sext i32 %108 to i64
  %110 = getelementptr inbounds ptr, ptr %104, i64 %109
  %111 = load ptr, ptr %8, align 8, !tbaa !75
  %112 = load ptr, ptr %12, align 8, !tbaa !90
  %113 = load ptr, ptr %11, align 8, !tbaa !89
  %114 = load ptr, ptr %4, align 8, !tbaa !4
  %115 = call i32 @av_expr_parse(ptr noundef %110, ptr noundef %111, ptr noundef @var_names, ptr noundef %112, ptr noundef %113, ptr noundef null, ptr noundef null, i32 noundef 0, ptr noundef %114)
  store i32 %115, ptr %14, align 4, !tbaa !24
  %116 = load i32, ptr %14, align 4, !tbaa !24
  %117 = icmp slt i32 %116, 0
  br i1 %117, label %118, label %119

118:                                              ; preds = %92
  br label %197

119:                                              ; preds = %92
  br label %120

120:                                              ; preds = %119
  br label %121

121:                                              ; preds = %120
  %122 = load ptr, ptr %8, align 8, !tbaa !75
  store ptr %122, ptr %9, align 8, !tbaa !75
  br label %78, !llvm.loop !92

123:                                              ; preds = %78
  %124 = load i32, ptr %5, align 4, !tbaa !24
  %125 = load ptr, ptr %6, align 8, !tbaa !22
  %126 = getelementptr inbounds nuw %struct.EvalContext, ptr %125, i32 0, i32 5
  %127 = load i32, ptr %126, align 8, !tbaa !35
  %128 = icmp sgt i32 %124, %127
  br i1 %128, label %129, label %181

129:                                              ; preds = %123
  %130 = load ptr, ptr %6, align 8, !tbaa !22
  %131 = getelementptr inbounds nuw %struct.EvalContext, ptr %130, i32 0, i32 5
  %132 = load i32, ptr %131, align 8, !tbaa !35
  store i32 %132, ptr %13, align 4, !tbaa !24
  br label %133

133:                                              ; preds = %177, %129
  %134 = load i32, ptr %13, align 4, !tbaa !24
  %135 = load i32, ptr %5, align 4, !tbaa !24
  %136 = icmp slt i32 %134, %135
  br i1 %136, label %137, label %180

137:                                              ; preds = %133
  br label %138

138:                                              ; preds = %137
  %139 = load ptr, ptr %6, align 8, !tbaa !22
  %140 = getelementptr inbounds nuw %struct.EvalContext, ptr %139, i32 0, i32 9
  %141 = load ptr, ptr %6, align 8, !tbaa !22
  %142 = getelementptr inbounds nuw %struct.EvalContext, ptr %141, i32 0, i32 5
  %143 = call i32 @av_dynarray_add_nofree(ptr noundef %140, ptr noundef %142, ptr noundef null)
  store i32 %143, ptr %14, align 4, !tbaa !24
  %144 = load i32, ptr %14, align 4, !tbaa !24
  %145 = icmp slt i32 %144, 0
  br i1 %145, label %146, label %147

146:                                              ; preds = %138
  br label %197

147:                                              ; preds = %138
  %148 = load ptr, ptr %6, align 8, !tbaa !22
  %149 = getelementptr inbounds nuw %struct.EvalContext, ptr %148, i32 0, i32 9
  %150 = load ptr, ptr %149, align 8, !tbaa !38
  %151 = load ptr, ptr %6, align 8, !tbaa !22
  %152 = getelementptr inbounds nuw %struct.EvalContext, ptr %151, i32 0, i32 5
  %153 = load i32, ptr %152, align 8, !tbaa !35
  %154 = sub nsw i32 %153, 1
  %155 = sext i32 %154 to i64
  %156 = getelementptr inbounds ptr, ptr %150, i64 %155
  store ptr null, ptr %156, align 8, !tbaa !39
  %157 = load ptr, ptr %6, align 8, !tbaa !22
  %158 = getelementptr inbounds nuw %struct.EvalContext, ptr %157, i32 0, i32 9
  %159 = load ptr, ptr %158, align 8, !tbaa !38
  %160 = load ptr, ptr %6, align 8, !tbaa !22
  %161 = getelementptr inbounds nuw %struct.EvalContext, ptr %160, i32 0, i32 5
  %162 = load i32, ptr %161, align 8, !tbaa !35
  %163 = sub nsw i32 %162, 1
  %164 = sext i32 %163 to i64
  %165 = getelementptr inbounds ptr, ptr %159, i64 %164
  %166 = load ptr, ptr %9, align 8, !tbaa !75
  %167 = load ptr, ptr %12, align 8, !tbaa !90
  %168 = load ptr, ptr %11, align 8, !tbaa !89
  %169 = load ptr, ptr %4, align 8, !tbaa !4
  %170 = call i32 @av_expr_parse(ptr noundef %165, ptr noundef %166, ptr noundef @var_names, ptr noundef %167, ptr noundef %168, ptr noundef null, ptr noundef null, i32 noundef 0, ptr noundef %169)
  store i32 %170, ptr %14, align 4, !tbaa !24
  %171 = load i32, ptr %14, align 4, !tbaa !24
  %172 = icmp slt i32 %171, 0
  br i1 %172, label %173, label %174

173:                                              ; preds = %147
  br label %197

174:                                              ; preds = %147
  br label %175

175:                                              ; preds = %174
  br label %176

176:                                              ; preds = %175
  br label %177

177:                                              ; preds = %176
  %178 = load i32, ptr %13, align 4, !tbaa !24
  %179 = add nsw i32 %178, 1
  store i32 %179, ptr %13, align 4, !tbaa !24
  br label %133, !llvm.loop !93

180:                                              ; preds = %133
  br label %181

181:                                              ; preds = %180, %123
  %182 = load i32, ptr %5, align 4, !tbaa !24
  %183 = icmp sgt i32 %182, 0
  br i1 %183, label %184, label %196

184:                                              ; preds = %181
  %185 = load ptr, ptr %6, align 8, !tbaa !22
  %186 = getelementptr inbounds nuw %struct.EvalContext, ptr %185, i32 0, i32 5
  %187 = load i32, ptr %186, align 8, !tbaa !35
  %188 = load i32, ptr %5, align 4, !tbaa !24
  %189 = icmp ne i32 %187, %188
  br i1 %189, label %190, label %196

190:                                              ; preds = %184
  %191 = load ptr, ptr %4, align 8, !tbaa !4
  %192 = load ptr, ptr %6, align 8, !tbaa !22
  %193 = getelementptr inbounds nuw %struct.EvalContext, ptr %192, i32 0, i32 5
  %194 = load i32, ptr %193, align 8, !tbaa !35
  %195 = load i32, ptr %5, align 4, !tbaa !24
  call void (ptr, i32, ptr, ...) @av_log(ptr noundef %191, i32 noundef 16, ptr noundef @.str.27, i32 noundef %194, i32 noundef %195)
  store i32 -22, ptr %14, align 4, !tbaa !24
  br label %197

196:                                              ; preds = %184, %181
  br label %197

197:                                              ; preds = %196, %190, %173, %146, %118, %91, %37
  %198 = load ptr, ptr %7, align 8, !tbaa !75
  call void @av_free(ptr noundef %198)
  %199 = load i32, ptr %14, align 4, !tbaa !24
  store i32 %199, ptr %3, align 4
  store i32 1, ptr %15, align 4
  br label %200

200:                                              ; preds = %197, %25
  call void @llvm.lifetime.end.p0(i64 4, ptr %14) #9
  call void @llvm.lifetime.end.p0(i64 4, ptr %13) #9
  call void @llvm.lifetime.end.p0(i64 8, ptr %12) #9
  call void @llvm.lifetime.end.p0(i64 8, ptr %11) #9
  call void @llvm.lifetime.end.p0(i64 8, ptr %10) #9
  call void @llvm.lifetime.end.p0(i64 8, ptr %9) #9
  call void @llvm.lifetime.end.p0(i64 8, ptr %8) #9
  call void @llvm.lifetime.end.p0(i64 8, ptr %7) #9
  call void @llvm.lifetime.end.p0(i64 8, ptr %6) #9
  %201 = load i32, ptr %3, align 4
  ret i32 %201
}