; Function Attrs: nounwind uwtable
define internal fastcc i32 @parse_channel_expressions(ptr noundef %0, i32 noundef %1) unnamed_addr #1 {
  %3 = alloca ptr, align 8
  %4 = getelementptr inbounds nuw i8, ptr %0, i64 72
  %5 = load ptr, ptr %4, align 8, !tbaa !4
  %6 = getelementptr inbounds nuw i8, ptr %5, i64 88
  %7 = load ptr, ptr %6, align 8, !tbaa !77
  %8 = tail call noalias ptr @av_strdup(ptr noundef %7) #11
  call void @llvm.lifetime.start.p0(i64 8, ptr nonnull %3) #11
  %.not = icmp eq ptr %8, null
  br i1 %.not, label %66, label %9

9:                                                ; preds = %2
  %10 = load ptr, ptr %6, align 8, !tbaa !77
  %.not75 = icmp eq ptr %10, null
  br i1 %.not75, label %13, label %11

11:                                               ; preds = %9
  %12 = load i8, ptr %10, align 1, !tbaa !40
  %.not76 = icmp eq i8 %12, 0
  br i1 %.not76, label %13, label %14

13:                                               ; preds = %11, %9
  tail call void (ptr, i32, ptr, ...) @av_log(ptr noundef nonnull %0, i32 noundef 16, ptr noundef nonnull @.str.25) #11
  br label %.loopexit81

14:                                               ; preds = %11
  %15 = getelementptr inbounds nuw i8, ptr %0, i64 8
  %16 = load ptr, ptr %15, align 8, !tbaa !25
  %17 = load ptr, ptr %16, align 8, !tbaa !26
  %18 = tail call i32 @strcmp(ptr noundef nonnull dereferenceable(1) %17, ptr noundef nonnull dereferenceable(6) @.str.2) #10
  %.not77 = icmp eq i32 %18, 0
  %spec.select = select i1 %.not77, ptr @aeval_func1, ptr null
  %spec.select80 = select i1 %.not77, ptr @aeval_func1_names, ptr null
  %19 = getelementptr inbounds nuw i8, ptr %5, i64 56
  %20 = load i32, ptr %19, align 8, !tbaa !30
  %21 = icmp sgt i32 %20, 0
  br i1 %21, label %.lr.ph, label %._crit_edge

.lr.ph:                                           ; preds = %14
  %22 = getelementptr inbounds nuw i8, ptr %5, i64 80
  %.pre = load ptr, ptr %22, align 8, !tbaa !33
  br label %23

23:                                               ; preds = %.lr.ph, %23
  %24 = phi ptr [ %.pre, %.lr.ph ], [ %27, %23 ]
  %indvars.iv = phi i64 [ 0, %.lr.ph ], [ %indvars.iv.next, %23 ]
  %25 = getelementptr inbounds nuw ptr, ptr %24, i64 %indvars.iv
  %26 = load ptr, ptr %25, align 8, !tbaa !34
  tail call void @av_expr_free(ptr noundef %26) #11
  %27 = load ptr, ptr %22, align 8, !tbaa !33
  %28 = getelementptr inbounds nuw ptr, ptr %27, i64 %indvars.iv
  store ptr null, ptr %28, align 8, !tbaa !34
  %indvars.iv.next = add nuw nsw i64 %indvars.iv, 1
  %29 = load i32, ptr %19, align 8, !tbaa !30
  %30 = sext i32 %29 to i64
  %31 = icmp slt i64 %indvars.iv.next, %30
  br i1 %31, label %23, label %._crit_edge, !llvm.loop !78

._crit_edge:                                      ; preds = %23, %14
  %32 = getelementptr inbounds nuw i8, ptr %5, i64 80
  tail call void @av_freep(ptr noundef nonnull %32) #11
  store i32 0, ptr %19, align 8, !tbaa !30
  store ptr %8, ptr %3, align 8, !tbaa !66
  %33 = call ptr @av_strtok(ptr noundef nonnull %8, ptr noundef nonnull @.str.26, ptr noundef nonnull %3) #11
  %.not7888 = icmp eq ptr %33, null
  br i1 %.not7888, label %._crit_edge91, label %.lr.ph90

34:                                               ; preds = %40
  %35 = load ptr, ptr %3, align 8, !tbaa !66
  %36 = call ptr @av_strtok(ptr noundef %35, ptr noundef nonnull @.str.26, ptr noundef nonnull %3) #11
  %.not78 = icmp eq ptr %36, null
  br i1 %.not78, label %._crit_edge91, label %.lr.ph90, !llvm.loop !79

.lr.ph90:                                         ; preds = %._crit_edge, %34
  %37 = phi ptr [ %36, %34 ], [ %33, %._crit_edge ]
  %38 = call i32 @av_dynarray_add_nofree(ptr noundef nonnull %32, ptr noundef nonnull %19, ptr noundef null) #11
  %39 = icmp slt i32 %38, 0
  br i1 %39, label %.loopexit81, label %40

40:                                               ; preds = %.lr.ph90
  %41 = load ptr, ptr %32, align 8, !tbaa !33
  %42 = load i32, ptr %19, align 8, !tbaa !30
  %43 = sext i32 %42 to i64
  %44 = getelementptr ptr, ptr %41, i64 %43
  %45 = getelementptr i8, ptr %44, i64 -8
  store ptr null, ptr %45, align 8, !tbaa !34
  %46 = call i32 @av_expr_parse(ptr noundef nonnull %45, ptr noundef nonnull %37, ptr noundef nonnull @var_names, ptr noundef %spec.select80, ptr noundef %spec.select, ptr noundef null, ptr noundef null, i32 noundef 0, ptr noundef %0) #11
  %47 = icmp slt i32 %46, 0
  br i1 %47, label %.loopexit81, label %34, !llvm.loop !79

._crit_edge91:                                    ; preds = %34, %._crit_edge
  %.060.lcssa = phi ptr [ null, %._crit_edge ], [ %37, %34 ]
  %.1.lcssa = phi i32 [ 0, %._crit_edge ], [ %46, %34 ]
  %48 = load i32, ptr %19, align 8, !tbaa !30
  %49 = icmp sgt i32 %1, %48
  br i1 %49, label %.preheader, label %.loopexit

50:                                               ; preds = %54
  %51 = add i32 %.15793, 1
  %exitcond.not = icmp eq i32 %51, %1
  br i1 %exitcond.not, label %.loopexit, label %.preheader, !llvm.loop !80

.preheader:                                       ; preds = %._crit_edge91, %50
  %.15793 = phi i32 [ %51, %50 ], [ %48, %._crit_edge91 ]
  %52 = call i32 @av_dynarray_add_nofree(ptr noundef nonnull %32, ptr noundef nonnull %19, ptr noundef null) #11
  %53 = icmp slt i32 %52, 0
  br i1 %53, label %.loopexit81, label %54

54:                                               ; preds = %.preheader
  %55 = load ptr, ptr %32, align 8, !tbaa !33
  %56 = load i32, ptr %19, align 8, !tbaa !30
  %57 = sext i32 %56 to i64
  %58 = getelementptr ptr, ptr %55, i64 %57
  %59 = getelementptr i8, ptr %58, i64 -8
  store ptr null, ptr %59, align 8, !tbaa !34
  %60 = call i32 @av_expr_parse(ptr noundef nonnull %59, ptr noundef %.060.lcssa, ptr noundef nonnull @var_names, ptr noundef %spec.select80, ptr noundef %spec.select, ptr noundef null, ptr noundef null, i32 noundef 0, ptr noundef %0) #11
  %61 = icmp slt i32 %60, 0
  br i1 %61, label %.loopexit81, label %50

.loopexit:                                        ; preds = %50, %._crit_edge91
  %.2 = phi i32 [ %.1.lcssa, %._crit_edge91 ], [ %60, %50 ]
  %62 = icmp sgt i32 %1, 0
  br i1 %62, label %63, label %.loopexit81

63:                                               ; preds = %.loopexit
  %64 = load i32, ptr %19, align 8, !tbaa !30
  %.not79 = icmp eq i32 %64, %1
  br i1 %.not79, label %.loopexit81, label %65

65:                                               ; preds = %63
  call void (ptr, i32, ptr, ...) @av_log(ptr noundef %0, i32 noundef 16, ptr noundef nonnull @.str.27, i32 noundef %64, i32 noundef %1) #11
  br label %.loopexit81

.loopexit81:                                      ; preds = %40, %.lr.ph90, %54, %.preheader, %.loopexit, %63, %65, %13
  %.0 = phi i32 [ -22, %65 ], [ %.2, %63 ], [ %.2, %.loopexit ], [ -22, %13 ], [ %60, %54 ], [ %52, %.preheader ], [ %46, %40 ], [ %38, %.lr.ph90 ]
  call void @av_free(ptr noundef nonnull %8) #11
  br label %66

66:                                               ; preds = %2, %.loopexit81
  %.061 = phi i32 [ %.0, %.loopexit81 ], [ -12, %2 ]
  call void @llvm.lifetime.end.p0(i64 8, ptr nonnull %3) #11
  ret i32 %.061
}